target datalayout = "e-m:e-p270:32:32-p271:32:32-p272:64:64-i64:64-i128:128-f80:128-n8:16:32:64-S128"
target triple = "x86_64-unknown-linux-gnu"

%struct.VMStateDescription = type { ptr, i8, i8, i32, i32, i32, ptr, ptr, ptr, ptr, ptr, ptr, ptr, ptr }
%struct.PCIDeviceClass = type { %struct.DeviceClass, ptr, ptr, ptr, ptr, i16, i16, i8, i16, i16, i16, ptr }
%struct.DeviceClass = type { %struct.ObjectClass, [1 x i64], ptr, ptr, ptr, i8, i8, ptr, ptr, ptr, ptr, ptr }
%struct.ObjectClass = type { ptr, ptr, [4 x ptr], [4 x ptr], ptr, ptr }

@.str.1 = private unnamed_addr constant [11 x i8] c"pci-device\00", align 1
@.str.4 = private unnamed_addr constant [7 x i8] c"device\00", align 1
@.str.5 = private unnamed_addr constant [101 x i8] c"/home/dtcxzyw/WorkSpace/Projects/compilers/llvm-opt-benchmark/bench/qemu/qemu/include/hw/qdev-core.h\00", align 1
@__func__.DEVICE_CLASS = private unnamed_addr constant [13 x i8] c"DEVICE_CLASS\00", align 1
@.str.6 = private unnamed_addr constant [106 x i8] c"/home/dtcxzyw/WorkSpace/Projects/compilers/llvm-opt-benchmark/bench/qemu/qemu/include/hw/pci/pci_device.h\00", align 1
@__func__.PCI_DEVICE_CLASS = private unnamed_addr constant [17 x i8] c"PCI_DEVICE_CLASS\00", align 1
@ivshmem_plain_vmsd = internal constant %struct.VMStateDescription { ptr @.str.38, i8 0, i8 0, i32 0, i32 0, i32 0, ptr @ivshmem_pre_load, ptr @ivshmem_post_load, ptr null, ptr null, ptr null, ptr null, ptr @.compoundliteral.47, ptr null }, align 8

; Function Attrs: nounwind sspstrong uwtable
define internal ptr @PCI_DEVICE_CLASS(ptr noundef %klass) #0 {
entry:
  %klass.addr = alloca ptr, align 8
  store ptr %klass, ptr %klass.addr, align 8
  %0 = load ptr, ptr %klass.addr, align 8
  %call = call ptr @object_class_dynamic_cast_assert(ptr noundef %0, ptr noundef @.str.1, ptr noundef @.str.6, i32 noundef 10, ptr noundef @__func__.PCI_DEVICE_CLASS)
  ret ptr %call
}

; Function Attrs: nounwind sspstrong uwtable
define internal ptr @DEVICE_CLASS(ptr noundef %klass) #0 {
entry:
  %klass.addr = alloca ptr, align 8
  store ptr %klass, ptr %klass.addr, align 8
  %0 = load ptr, ptr %klass.addr, align 8
  %call = call ptr @object_class_dynamic_cast_assert(ptr noundef %0, ptr noundef @.str.4, ptr noundef @.str.5, i32 noundef 77, ptr noundef @__func__.DEVICE_CLASS)
  ret ptr %call
}

; Function Attrs: nounwind sspstrong uwtable
define internal void @ivshmem_plain_class_init(ptr noundef %klass, ptr noundef %data) #0 {
entry:
  %klass.addr = alloca ptr, align 8
  %data.addr = alloca ptr, align 8
  %dc = alloca ptr, align 8
  %k = alloca ptr, align 8
  store ptr %klass, ptr %klass.addr, align 8
  store ptr %data, ptr %data.addr, align 8
  %0 = load ptr, ptr %klass.addr, align 8
  %call = call ptr @DEVICE_CLASS(ptr noundef %0)
  store ptr %call, ptr %dc, align 8
  %1 = load ptr, ptr %klass.addr, align 8
  %call1 = call ptr @PCI_DEVICE_CLASS(ptr noundef %1)
  store ptr %call1, ptr %k, align 8
  %2 = load ptr, ptr %k, align 8
  %realize = getelementptr inbounds %struct.PCIDeviceClass, ptr %2, i32 0, i32 1
  store ptr @ivshmem_plain_realize, ptr %realize, align 8
  %3 = load ptr, ptr %dc, align 8
  call void @device_class_set_props(ptr noundef %3, ptr noundef @ivshmem_plain_properties)
  %4 = load ptr, ptr %dc, align 8
  %vmsd = getelementptr inbounds %struct.DeviceClass, ptr %4, i32 0, i32 10
  store ptr @ivshmem_plain_vmsd, ptr %vmsd, align 8
  ret void
}